target datalayout = "e-m:e-p270:32:32-p271:32:32-p272:64:64-i64:64-i128:128-f80:128-n8:16:32:64-S128"
target triple = "x86_64-pc-linux-gnu"

%struct.aclSelector = type { i32, [16 x i64], ptr, ptr, ptr, ptr }
%struct.user = type { ptr, i32, ptr, ptr, ptr }
%struct.listNode = type { ptr, ptr, ptr }
%struct.listIter = type { ptr, i32 }
%struct.sdshdr8 = type { i8, i8, i8, [0 x i8] }
%struct.sdshdr16 = type <{ i16, i16, i8, [0 x i8] }>
%struct.sdshdr32 = type <{ i32, i32, i8, [0 x i8] }>
%struct.sdshdr64 = type <{ i64, i64, i8, [0 x i8] }>
%struct.raxIterator = type { i32, ptr, ptr, ptr, i64, i64, [128 x i8], ptr, %struct.raxStack, ptr }
%struct.raxStack = type { ptr, i64, i64, [32 x ptr], i32 }

@.str.22 = private unnamed_addr constant [6 x i8] c"acl.c\00", align 1
@Users = dso_local global ptr null, align 8
@.str.43 = private unnamed_addr constant [2 x i8] c"^\00", align 1
@.str.44 = private unnamed_addr constant [13 x i8] c"argv != NULL\00", align 1
@.str.45 = private unnamed_addr constant [6 x i8] c"+@all\00", align 1
@.str.46 = private unnamed_addr constant [12 x i8] c"res == C_OK\00", align 1
@.str.47 = private unnamed_addr constant [6 x i8] c"-@all\00", align 1

; Function Attrs: nounwind uwtable
define dso_local i32 @ACLGetCommandBitCoordinates(i64 noundef %0, ptr noundef %1, ptr noundef %2) #0 {
  %4 = alloca i32, align 4
  %5 = alloca i64, align 8
  %6 = alloca ptr, align 8
  %7 = alloca ptr, align 8
  store i64 %0, ptr %5, align 8, !tbaa !10
  store ptr %1, ptr %6, align 8, !tbaa !105
  store ptr %2, ptr %7, align 8, !tbaa !105
  %8 = load i64, ptr %5, align 8, !tbaa !10
  %9 = icmp uge i64 %8, 1024
  br i1 %9, label %10, label %11

10:                                               ; preds = %3
  store i32 -1, ptr %4, align 4
  br label %20

11:                                               ; preds = %3
  %12 = load i64, ptr %5, align 8, !tbaa !10
  %13 = udiv i64 %12, 8
  %14 = udiv i64 %13, 8
  %15 = load ptr, ptr %6, align 8, !tbaa !105
  store i64 %14, ptr %15, align 8, !tbaa !10
  %16 = load i64, ptr %5, align 8, !tbaa !10
  %17 = urem i64 %16, 64
  %18 = shl i64 1, %17
  %19 = load ptr, ptr %7, align 8, !tbaa !105
  store i64 %18, ptr %19, align 8, !tbaa !10
  store i32 0, ptr %4, align 4
  br label %20

20:                                               ; preds = %11, %10
  %21 = load i32, ptr %4, align 4
  ret i32 %21
}

; Function Attrs: nounwind uwtable
define dso_local i32 @ACLGetSelectorCommandBit(ptr noundef %0, i64 noundef %1) #0 {
  %3 = alloca i32, align 4
  %4 = alloca ptr, align 8
  %5 = alloca i64, align 8
  %6 = alloca i64, align 8
  %7 = alloca i64, align 8
  %8 = alloca i32, align 4
  store ptr %0, ptr %4, align 8, !tbaa !32
  store i64 %1, ptr %5, align 8, !tbaa !10
  call void @llvm.lifetime.start.p0(i64 8, ptr %6) #14
  call void @llvm.lifetime.start.p0(i64 8, ptr %7) #14
  %9 = load i64, ptr %5, align 8, !tbaa !10
  %10 = call i32 @ACLGetCommandBitCoordinates(i64 noundef %9, ptr noundef %6, ptr noundef %7)
  %11 = icmp eq i32 %10, -1
  br i1 %11, label %12, label %13

12:                                               ; preds = %2
  store i32 0, ptr %3, align 4
  store i32 1, ptr %8, align 4
  br label %23

13:                                               ; preds = %2
  %14 = load ptr, ptr %4, align 8, !tbaa !32
  %15 = getelementptr inbounds nuw %struct.aclSelector, ptr %14, i32 0, i32 1
  %16 = load i64, ptr %6, align 8, !tbaa !10
  %17 = getelementptr inbounds nuw [16 x i64], ptr %15, i64 0, i64 %16
  %18 = load i64, ptr %17, align 8, !tbaa !10
  %19 = load i64, ptr %7, align 8, !tbaa !10
  %20 = and i64 %18, %19
  %21 = icmp ne i64 %20, 0
  %22 = zext i1 %21 to i32
  store i32 %22, ptr %3, align 4
  store i32 1, ptr %8, align 4
  br label %23

23:                                               ; preds = %13, %12
  call void @llvm.lifetime.end.p0(i64 8, ptr %7) #14
  call void @llvm.lifetime.end.p0(i64 8, ptr %6) #14
  %24 = load i32, ptr %3, align 4
  ret i32 %24
}

; Function Attrs: inlinehint nounwind uwtable
define internal i64 @sdslen(ptr noundef %0) #11 {
  %2 = alloca i64, align 8
  %3 = alloca ptr, align 8
  %4 = alloca i8, align 1
  %5 = alloca i32, align 4
  store ptr %0, ptr %3, align 8, !tbaa !5
  call void @llvm.lifetime.start.p0(i64 1, ptr %4) #14
  %6 = load ptr, ptr %3, align 8, !tbaa !5
  %7 = getelementptr inbounds i8, ptr %6, i64 -1
  %8 = load i8, ptr %7, align 1, !tbaa !22
  store i8 %8, ptr %4, align 1, !tbaa !22
  %9 = load i8, ptr %4, align 1, !tbaa !22
  %10 = zext i8 %9 to i32
  %11 = and i32 %10, 7
  switch i32 %11, label %40 [
    i32 0, label %12
    i32 1, label %17
    i32 2, label %23
    i32 3, label %29
    i32 4, label %35
  ]

12:                                               ; preds = %1
  %13 = load i8, ptr %4, align 1, !tbaa !22
  %14 = zext i8 %13 to i32
  %15 = ashr i32 %14, 3
  %16 = sext i32 %15 to i64
  store i64 %16, ptr %2, align 8
  store i32 1, ptr %5, align 4
  br label %41

17:                                               ; preds = %1
  %18 = load ptr, ptr %3, align 8, !tbaa !5
  %19 = getelementptr inbounds i8, ptr %18, i64 -3
  %20 = getelementptr inbounds nuw %struct.sdshdr8, ptr %19, i32 0, i32 0
  %21 = load i8, ptr %20, align 1, !tbaa !22
  %22 = zext i8 %21 to i64
  store i64 %22, ptr %2, align 8
  store i32 1, ptr %5, align 4
  br label %41

23:                                               ; preds = %1
  %24 = load ptr, ptr %3, align 8, !tbaa !5
  %25 = getelementptr inbounds i8, ptr %24, i64 -5
  %26 = getelementptr inbounds nuw %struct.sdshdr16, ptr %25, i32 0, i32 0
  %27 = load i16, ptr %26, align 1, !tbaa !28
  %28 = zext i16 %27 to i64
  store i64 %28, ptr %2, align 8
  store i32 1, ptr %5, align 4
  br label %41

29:                                               ; preds = %1
  %30 = load ptr, ptr %3, align 8, !tbaa !5
  %31 = getelementptr inbounds i8, ptr %30, i64 -9
  %32 = getelementptr inbounds nuw %struct.sdshdr32, ptr %31, i32 0, i32 0
  %33 = load i32, ptr %32, align 1, !tbaa !17
  %34 = zext i32 %33 to i64
  store i64 %34, ptr %2, align 8
  store i32 1, ptr %5, align 4
  br label %41

35:                                               ; preds = %1
  %36 = load ptr, ptr %3, align 8, !tbaa !5
  %37 = getelementptr inbounds i8, ptr %36, i64 -17
  %38 = getelementptr inbounds nuw %struct.sdshdr64, ptr %37, i32 0, i32 0
  %39 = load i64, ptr %38, align 1, !tbaa !10
  store i64 %39, ptr %2, align 8
  store i32 1, ptr %5, align 4
  br label %41

40:                                               ; preds = %1
  store i64 0, ptr %2, align 8
  store i32 1, ptr %5, align 4
  br label %41

41:                                               ; preds = %40, %35, %29, %23, %17, %12
  call void @llvm.lifetime.end.p0(i64 1, ptr %4) #14
  %42 = load i64, ptr %2, align 8
  ret i64 %42
}

; Function Attrs: nounwind uwtable
define dso_local i32 @ACLSelectorCanExecuteFutureCommands(ptr noundef %0) #0 {
  %2 = alloca ptr, align 8
  store ptr %0, ptr %2, align 8, !tbaa !32
  %3 = load ptr, ptr %2, align 8, !tbaa !32
  %4 = call i32 @ACLGetSelectorCommandBit(ptr noundef %3, i64 noundef 1023)
  ret i32 %4
}

; Function Attrs: nounwind uwtable
define dso_local void @ACLRecomputeCommandBitsFromCommandRulesAllUsers() #0 {
  %1 = alloca %struct.raxIterator, align 8
  %2 = alloca ptr, align 8
  %3 = alloca %struct.listIter, align 8
  %4 = alloca ptr, align 8
  %5 = alloca ptr, align 8
  %6 = alloca i32, align 4
  %7 = alloca ptr, align 8
  %8 = alloca i32, align 4
  %9 = alloca i32, align 4
  %10 = alloca i32, align 4
  %11 = alloca i32, align 4
  call void @llvm.lifetime.start.p0(i64 480, ptr %1) #14
  %12 = load ptr, ptr @Users, align 8, !tbaa !88
  call void @raxStart(ptr noundef %1, ptr noundef %12)
  %13 = call i32 @raxSeek(ptr noundef %1, ptr noundef @.str.43, ptr noundef null, i64 noundef 0)
  br label %14

14:                                               ; preds = %117, %0
  %15 = call i32 @raxNext(ptr noundef %1)
  %16 = icmp ne i32 %15, 0
  br i1 %16, label %17, label %118

17:                                               ; preds = %14
  call void @llvm.lifetime.start.p0(i64 8, ptr %2) #14
  %18 = getelementptr inbounds nuw %struct.raxIterator, ptr %1, i32 0, i32 3
  %19 = load ptr, ptr %18, align 8, !tbaa !124
  store ptr %19, ptr %2, align 8, !tbaa !32
  call void @llvm.lifetime.start.p0(i64 16, ptr %3) #14
  call void @llvm.lifetime.start.p0(i64 8, ptr %4) #14
  %20 = load ptr, ptr %2, align 8, !tbaa !32
  %21 = getelementptr inbounds nuw %struct.user, ptr %20, i32 0, i32 3
  %22 = load ptr, ptr %21, align 8, !tbaa !81
  call void @listRewind(ptr noundef %22, ptr noundef %3)
  br label %23

23:                                               ; preds = %114, %17
  %24 = call ptr @listNext(ptr noundef %3)
  store ptr %24, ptr %4, align 8, !tbaa !94
  %25 = icmp ne ptr %24, null
  br i1 %25, label %26, label %117

26:                                               ; preds = %23
  call void @llvm.lifetime.start.p0(i64 8, ptr %5) #14
  %27 = load ptr, ptr %4, align 8, !tbaa !94
  %28 = getelementptr inbounds nuw %struct.listNode, ptr %27, i32 0, i32 2
  %29 = load ptr, ptr %28, align 8, !tbaa !86
  store ptr %29, ptr %5, align 8, !tbaa !32
  call void @llvm.lifetime.start.p0(i64 4, ptr %6) #14
  store i32 0, ptr %6, align 4, !tbaa !17
  call void @llvm.lifetime.start.p0(i64 8, ptr %7) #14
  %30 = load ptr, ptr %5, align 8, !tbaa !32
  %31 = getelementptr inbounds nuw %struct.aclSelector, ptr %30, i32 0, i32 5
  %32 = load ptr, ptr %31, align 8, !tbaa !70
  %33 = call ptr @sdssplitargs(ptr noundef %32, ptr noundef %6)
  store ptr %33, ptr %7, align 8, !tbaa !33
  %34 = load ptr, ptr %7, align 8, !tbaa !33
  %35 = icmp ne ptr %34, null
  %36 = xor i1 %35, true
  %37 = xor i1 %36, true
  %38 = zext i1 %37 to i32
  %39 = sext i32 %38 to i64
  %40 = call i64 @llvm.expect.i64(i64 %39, i64 1)
  %41 = icmp ne i64 %40, 0
  br i1 %41, label %42, label %43

42:                                               ; preds = %26
  br label %45

43:                                               ; preds = %26
  call void @_serverAssert(ptr noundef @.str.44, ptr noundef @.str.22, i32 noundef 681)
  call void @abort() #15
  unreachable

44:                                               ; No predecessors!
  br label %45

45:                                               ; preds = %44, %42
  %46 = load ptr, ptr %5, align 8, !tbaa !32
  %47 = call i32 @ACLSelectorCanExecuteFutureCommands(ptr noundef %46)
  %48 = icmp ne i32 %47, 0
  br i1 %48, label %49, label %64

49:                                               ; preds = %45
  call void @llvm.lifetime.start.p0(i64 4, ptr %8) #14
  %50 = load ptr, ptr %5, align 8, !tbaa !32
  %51 = call i32 @ACLSetSelector(ptr noundef %50, ptr noundef @.str.45, i64 noundef -1)
  store i32 %51, ptr %8, align 4, !tbaa !17
  %52 = load i32, ptr %8, align 4, !tbaa !17
  %53 = icmp eq i32 %52, 0
  %54 = xor i1 %53, true
  %55 = xor i1 %54, true
  %56 = zext i1 %55 to i32
  %57 = sext i32 %56 to i64
  %58 = call i64 @llvm.expect.i64(i64 %57, i64 1)
  %59 = icmp ne i64 %58, 0
  br i1 %59, label %60, label %61

60:                                               ; preds = %49
  br label %63

61:                                               ; preds = %49
  call void @_serverAssert(ptr noundef @.str.46, ptr noundef @.str.22, i32 noundef 685)
  call void @abort() #15
  unreachable

62:                                               ; No predecessors!
  br label %63

63:                                               ; preds = %62, %60
  call void @llvm.lifetime.end.p0(i64 4, ptr %8) #14
  br label %79

64:                                               ; preds = %45
  call void @llvm.lifetime.start.p0(i64 4, ptr %9) #14
  %65 = load ptr, ptr %5, align 8, !tbaa !32
  %66 = call i32 @ACLSetSelector(ptr noundef %65, ptr noundef @.str.47, i64 noundef -1)
  store i32 %66, ptr %9, align 4, !tbaa !17
  %67 = load i32, ptr %9, align 4, !tbaa !17
  %68 = icmp eq i32 %67, 0
  %69 = xor i1 %68, true
  %70 = xor i1 %69, true
  %71 = zext i1 %70 to i32
  %72 = sext i32 %71 to i64
  %73 = call i64 @llvm.expect.i64(i64 %72, i64 1)
  %74 = icmp ne i64 %73, 0
  br i1 %74, label %75, label %76

75:                                               ; preds = %64
  br label %78

76:                                               ; preds = %64
  call void @_serverAssert(ptr noundef @.str.46, ptr noundef @.str.22, i32 noundef 688)
  call void @abort() #15
  unreachable

77:                                               ; No predecessors!
  br label %78

78:                                               ; preds = %77, %75
  call void @llvm.lifetime.end.p0(i64 4, ptr %9) #14
  br label %79

79:                                               ; preds = %78, %63
  call void @llvm.lifetime.start.p0(i64 4, ptr %10) #14
  store i32 0, ptr %10, align 4, !tbaa !17
  br label %80

80:                                               ; preds = %111, %79
  %81 = load i32, ptr %10, align 4, !tbaa !17
  %82 = load i32, ptr %6, align 4, !tbaa !17
  %83 = icmp slt i32 %81, %82
  br i1 %83, label %85, label %84

84:                                               ; preds = %80
  call void @llvm.lifetime.end.p0(i64 4, ptr %10) #14
  br label %114

85:                                               ; preds = %80
  call void @llvm.lifetime.start.p0(i64 4, ptr %11) #14
  %86 = load ptr, ptr %5, align 8, !tbaa !32
  %87 = load ptr, ptr %7, align 8, !tbaa !33
  %88 = load i32, ptr %10, align 4, !tbaa !17
  %89 = sext i32 %88 to i64
  %90 = getelementptr inbounds ptr, ptr %87, i64 %89
  %91 = load ptr, ptr %90, align 8, !tbaa !5
  %92 = load ptr, ptr %7, align 8, !tbaa !33
  %93 = load i32, ptr %10, align 4, !tbaa !17
  %94 = sext i32 %93 to i64
  %95 = getelementptr inbounds ptr, ptr %92, i64 %94
  %96 = load ptr, ptr %95, align 8, !tbaa !5
  %97 = call i64 @sdslen(ptr noundef %96)
  %98 = call i32 @ACLSetSelector(ptr noundef %86, ptr noundef %91, i64 noundef %97)
  store i32 %98, ptr %11, align 4, !tbaa !17
  %99 = load i32, ptr %11, align 4, !tbaa !17
  %100 = icmp eq i32 %99, 0
  %101 = xor i1 %100, true
  %102 = xor i1 %101, true
  %103 = zext i1 %102 to i32
  %104 = sext i32 %103 to i64
  %105 = call i64 @llvm.expect.i64(i64 %104, i64 1)
  %106 = icmp ne i64 %105, 0
  br i1 %106, label %107, label %108

107:                                              ; preds = %85
  br label %110

108:                                              ; preds = %85
  call void @_serverAssert(ptr noundef @.str.46, ptr noundef @.str.22, i32 noundef 694)
  call void @abort() #15
  unreachable

109:                                              ; No predecessors!
  br label %110

110:                                              ; preds = %109, %107
  call void @llvm.lifetime.end.p0(i64 4, ptr %11) #14
  br label %111

111:                                              ; preds = %110
  %112 = load i32, ptr %10, align 4, !tbaa !17
  %113 = add nsw i32 %112, 1
  store i32 %113, ptr %10, align 4, !tbaa !17
  br label %80, !llvm.loop !128

114:                                              ; preds = %84
  %115 = load ptr, ptr %7, align 8, !tbaa !33
  %116 = load i32, ptr %6, align 4, !tbaa !17
  call void @sdsfreesplitres(ptr noundef %115, i32 noundef %116)
  call void @llvm.lifetime.end.p0(i64 8, ptr %7) #14
  call void @llvm.lifetime.end.p0(i64 4, ptr %6) #14
  call void @llvm.lifetime.end.p0(i64 8, ptr %5) #14
  br label %23, !llvm.loop !129

117:                                              ; preds = %23
  call void @llvm.lifetime.end.p0(i64 8, ptr %4) #14
  call void @llvm.lifetime.end.p0(i64 16, ptr %3) #14
  call void @llvm.lifetime.end.p0(i64 8, ptr %2) #14
  br label %14, !llvm.loop !130

118:                                              ; preds = %14
  call void @raxStop(ptr noundef %1)
  call void @llvm.lifetime.end.p0(i64 480, ptr %1) #14
  ret void
}