; Function Attrs: nounwind uwtable
define dso_local void @ACLRecomputeCommandBitsFromCommandRulesAllUsers() local_unnamed_addr #0 {
  %1 = alloca %struct.raxIterator, align 8
  %2 = alloca %struct.listIter, align 8
  %3 = alloca i32, align 4
  call void @llvm.lifetime.start.p0(i64 480, ptr nonnull %1) #25
  %4 = load ptr, ptr @Users, align 8, !tbaa !87
  call void @raxStart(ptr noundef nonnull %1, ptr noundef %4) #25
  %5 = call i32 @raxSeek(ptr noundef nonnull %1, ptr noundef nonnull @.str.43, ptr noundef null, i64 noundef 0) #25
  %6 = call i32 @raxNext(ptr noundef nonnull %1) #25
  %.not29 = icmp eq i32 %6, 0
  br i1 %.not29, label %._crit_edge32, label %.lr.ph31

.lr.ph31:                                         ; preds = %0
  %7 = getelementptr inbounds nuw i8, ptr %1, i64 24
  br label %8

8:                                                ; preds = %.lr.ph31, %._crit_edge28
  %9 = load ptr, ptr %7, align 8, !tbaa !115
  call void @llvm.lifetime.start.p0(i64 16, ptr nonnull %2) #25
  %10 = getelementptr inbounds nuw i8, ptr %9, i64 24
  %11 = load ptr, ptr %10, align 8, !tbaa !79
  call void @listRewind(ptr noundef %11, ptr noundef nonnull %2) #25
  %12 = call ptr @listNext(ptr noundef nonnull %2) #25
  %.not2025 = icmp eq ptr %12, null
  br i1 %.not2025, label %._crit_edge28, label %.lr.ph27

.lr.ph27:                                         ; preds = %8, %._crit_edge
  %13 = phi ptr [ %38, %._crit_edge ], [ %12, %8 ]
  %14 = getelementptr inbounds nuw i8, ptr %13, i64 16
  %15 = load ptr, ptr %14, align 8, !tbaa !85
  call void @llvm.lifetime.start.p0(i64 4, ptr nonnull %3) #25
  store i32 0, ptr %3, align 4, !tbaa !102
  %16 = getelementptr inbounds nuw i8, ptr %15, i64 160
  %17 = load ptr, ptr %16, align 8, !tbaa !67
  %18 = call ptr @sdssplitargs(ptr noundef %17, ptr noundef nonnull %3) #25
  %.not21 = icmp eq ptr %18, null
  br i1 %.not21, label %19, label %20, !prof !83

19:                                               ; preds = %.lr.ph27
  call void @_serverAssert(ptr noundef nonnull @.str.44, ptr noundef nonnull @.str.22, i32 noundef 681) #25
  call void @abort() #27
  unreachable

20:                                               ; preds = %.lr.ph27
  %21 = getelementptr inbounds nuw i8, ptr %15, i64 128
  %22 = load i64, ptr %21, align 8, !tbaa !5
  %.not22 = icmp sgt i64 %22, -1
  br i1 %.not22, label %27, label %23

23:                                               ; preds = %20
  %24 = call i32 @ACLSetSelector(ptr noundef nonnull %15, ptr noundef nonnull @.str.45, i64 noundef -1)
  %25 = icmp eq i32 %24, 0
  br i1 %25, label %31, label %26, !prof !119

26:                                               ; preds = %23
  call void @_serverAssert(ptr noundef nonnull @.str.46, ptr noundef nonnull @.str.22, i32 noundef 685) #25
  call void @abort() #27
  unreachable

27:                                               ; preds = %20
  %28 = call i32 @ACLSetSelector(ptr noundef nonnull %15, ptr noundef nonnull @.str.47, i64 noundef -1)
  %29 = icmp eq i32 %28, 0
  br i1 %29, label %31, label %30, !prof !119

30:                                               ; preds = %27
  call void @_serverAssert(ptr noundef nonnull @.str.46, ptr noundef nonnull @.str.22, i32 noundef 688) #25
  call void @abort() #27
  unreachable

31:                                               ; preds = %27, %23
  %32 = load i32, ptr %3, align 4, !tbaa !102
  %33 = icmp sgt i32 %32, 0
  br i1 %33, label %.lr.ph, label %._crit_edge

34:                                               ; preds = %sdslen.exit
  %indvars.iv.next = add nuw nsw i64 %indvars.iv, 1
  %35 = load i32, ptr %3, align 4, !tbaa !102
  %36 = sext i32 %35 to i64
  %37 = icmp slt i64 %indvars.iv.next, %36
  br i1 %37, label %.lr.ph, label %._crit_edge, !llvm.loop !120

._crit_edge:                                      ; preds = %34, %31
  %.lcssa = phi i32 [ %32, %31 ], [ %35, %34 ]
  call void @sdsfreesplitres(ptr noundef nonnull %18, i32 noundef %.lcssa) #25
  call void @llvm.lifetime.end.p0(i64 4, ptr nonnull %3) #25
  %38 = call ptr @listNext(ptr noundef nonnull %2) #25
  %.not20 = icmp eq ptr %38, null
  br i1 %.not20, label %._crit_edge28, label %.lr.ph27, !llvm.loop !121

.lr.ph:                                           ; preds = %31, %34
  %indvars.iv = phi i64 [ %indvars.iv.next, %34 ], [ 0, %31 ]
  %39 = getelementptr inbounds nuw ptr, ptr %18, i64 %indvars.iv
  %40 = load ptr, ptr %39, align 8, !tbaa !29
  %41 = getelementptr inbounds i8, ptr %40, i64 -1
  %42 = load i8, ptr %41, align 1, !tbaa !19
  %43 = zext i8 %42 to i32
  %44 = and i32 %43, 7
  switch i32 %44, label %sdslen.exit [
    i32 0, label %45
    i32 1, label %48
    i32 2, label %52
    i32 3, label %56
    i32 4, label %60
  ]

45:                                               ; preds = %.lr.ph
  %46 = lshr i32 %43, 3
  %47 = zext nneg i32 %46 to i64
  br label %sdslen.exit

48:                                               ; preds = %.lr.ph
  %49 = getelementptr inbounds i8, ptr %40, i64 -3
  %50 = load i8, ptr %49, align 1, !tbaa !19
  %51 = zext i8 %50 to i64
  br label %sdslen.exit

52:                                               ; preds = %.lr.ph
  %53 = getelementptr inbounds i8, ptr %40, i64 -5
  %54 = load i16, ptr %53, align 1, !tbaa !26
  %55 = zext i16 %54 to i64
  br label %sdslen.exit

56:                                               ; preds = %.lr.ph
  %57 = getelementptr inbounds i8, ptr %40, i64 -9
  %58 = load i32, ptr %57, align 1, !tbaa !102
  %59 = zext i32 %58 to i64
  br label %sdslen.exit

60:                                               ; preds = %.lr.ph
  %61 = getelementptr inbounds i8, ptr %40, i64 -17
  %62 = load i64, ptr %61, align 1, !tbaa !5
  br label %sdslen.exit

sdslen.exit:                                      ; preds = %.lr.ph, %45, %48, %52, %56, %60
  %.0.i = phi i64 [ %62, %60 ], [ %59, %56 ], [ %55, %52 ], [ %51, %48 ], [ %47, %45 ], [ 0, %.lr.ph ]
  %63 = call i32 @ACLSetSelector(ptr noundef %15, ptr noundef nonnull %40, i64 noundef %.0.i)
  %64 = icmp eq i32 %63, 0
  br i1 %64, label %34, label %65, !prof !119

65:                                               ; preds = %sdslen.exit
  call void @_serverAssert(ptr noundef nonnull @.str.46, ptr noundef nonnull @.str.22, i32 noundef 694) #25
  call void @abort() #27
  unreachable

._crit_edge28:                                    ; preds = %._crit_edge, %8
  call void @llvm.lifetime.end.p0(i64 16, ptr nonnull %2) #25
  %66 = call i32 @raxNext(ptr noundef nonnull %1) #25
  %.not = icmp eq i32 %66, 0
  br i1 %.not, label %._crit_edge32, label %8, !llvm.loop !122

._crit_edge32:                                    ; preds = %._crit_edge28, %0
  call void @raxStop(ptr noundef nonnull %1) #25
  call void @llvm.lifetime.end.p0(i64 480, ptr nonnull %1) #25
  ret void
}